; Function Attrs: mustprogress uwtable
define void @_ZN6casadi4Call11create_callERKNS_8FunctionERKSt6vectorINS_2MXESaIS5_EE(ptr dead_on_unwind noalias writable sret(%"class.casadi::MX") align 8 %0, ptr noundef nonnull align 8 dereferenceable(8) %1, ptr noundef nonnull align 8 dereferenceable(24) %2) local_unnamed_addr #3 align 2 personality ptr @__gxx_personality_v0 {
  %4 = tail call noalias noundef nonnull dereferenceable(128) ptr @_Znwm(i64 noundef 128) #27
  invoke void @_ZN6casadi4CallC1ERKNS_8FunctionERKSt6vectorINS_2MXESaIS5_EE(ptr noundef nonnull align 8 dereferenceable(128) %4, ptr noundef nonnull align 8 dereferenceable(8) %1, ptr noundef nonnull align 8 dereferenceable(24) %2)
          to label %5 unwind label %6

5:                                                ; preds = %3
  tail call void @_ZN6casadi2MX6createEPNS_6MXNodeE(ptr dead_on_unwind writable sret(%"class.casadi::MX") align 8 %0, ptr noundef nonnull %4)
  ret void

6:                                                ; preds = %3
  %7 = landingpad { ptr, i32 }
          cleanup
  tail call void @_ZdlPvm(ptr noundef nonnull %4, i64 noundef 128) #26
  resume { ptr, i32 } %7
}